target datalayout = "e-m:e-p270:32:32-p271:32:32-p272:64:64-i64:64-i128:128-f80:128-n8:16:32:64-S128"
target triple = "x86_64-pc-linux-gnu"

%struct.jit_State = type { %struct.GCtrace, ptr, ptr, ptr, ptr, ptr, ptr, i32, i32, i32, i8, i8, %struct.IRType1, i8, %struct.FoldState, ptr, i32, i32, i32, i32, i32, i32, i32, [1 x i32], [5 x %union.TValue], [3 x %union.TValue], ptr, i32, i32, i32, i32, ptr, ptr, i32, i32, i8, ptr, i32, i32, i16, [101 x i16], [258 x i32], [15 x i32], [16 x ptr], [64 x %struct.HotPenalty], i32, [16 x %struct.BPropEntry], i32, %struct.ScEvEntry, ptr, i32, i32, i32, ptr, i32, i32, ptr, ptr, ptr, i64, i64, %union.TValue, ptr, i32, i32 }
%struct.GCtrace = type { %struct.GCRef, i8, i8, i16, i32, i32, %struct.GCRef, ptr, i32, i32, ptr, ptr, %struct.GCRef, %struct.MRef, i32, i32, ptr, i32, i16, i16, i16, i16, i16, i16, i16, i8, i8, i8, i8 }
%struct.GCRef = type { i64 }
%struct.MRef = type { i64 }
%struct.IRType1 = type { i8 }
%struct.FoldState = type { %union.IRIns, [2 x %union.IRIns], [2 x %union.IRIns] }
%union.IRIns = type { %struct.GCRef }
%struct.HotPenalty = type { %struct.MRef, i16, i16 }
%struct.BPropEntry = type { i16, i16, i32 }
%struct.ScEvEntry = type { %struct.MRef, i16, i16, i16, i16, %struct.IRType1, i8 }
%union.TValue = type { i64 }
%struct.lua_State = type { %struct.GCRef, i8, i8, i8, i8, %struct.MRef, %struct.GCRef, ptr, ptr, %struct.MRef, %struct.MRef, %struct.GCRef, %struct.GCRef, ptr, i32 }
%struct.GG_State = type { %struct.lua_State, %struct.global_State, %struct.jit_State, [64 x i16], [243 x ptr], [57 x i32] }
%struct.global_State = type { ptr, ptr, %struct.GCState, %struct.GCstr, i8, i8, i8, i8, %struct.StrInternState, i32, %struct.GCRef, %struct.SBuf, %union.TValue, %union.TValue, %struct.Node, %union.TValue, %struct.GCupval, i32, i32, ptr, ptr, ptr, i32, i32, %struct.GCRef, %struct.MRef, %struct.MRef, %struct.PRNGState, [39 x %struct.GCRef] }
%struct.GCState = type { i64, i64, i8, i8, i8, i8, i32, %struct.GCRef, %struct.MRef, %struct.GCRef, %struct.GCRef, %struct.GCRef, %struct.GCRef, i64, i64, i32, i32, %struct.MRef }
%struct.GCstr = type { %struct.GCRef, i8, i8, i8, i8, i32, i32, i32 }
%struct.StrInternState = type { ptr, i32, i32, i32, i8, i8, i8, i8, i64 }
%struct.SBuf = type { ptr, ptr, ptr, %struct.MRef }
%struct.Node = type { %union.TValue, %union.TValue, %struct.MRef }
%struct.GCupval = type { %struct.GCRef, i8, i8, i8, i8, %union.anon, %struct.MRef, i32 }
%union.anon = type { %struct.anon.3 }
%struct.anon.3 = type { %struct.GCRef, %struct.GCRef }
%struct.PRNGState = type { [4 x i64] }
%struct.SnapShot = type { i32, i16, i16, i8, i8, i8, i8 }

; Function Attrs: alwaysinline nounwind uwtable
define internal ptr @exitstub_addr_(ptr noundef %0, i32 noundef %1) #1 {
  %3 = alloca ptr, align 8
  %4 = alloca i32, align 4
  store ptr %0, ptr %3, align 8, !tbaa !143
  store i32 %1, ptr %4, align 4, !tbaa !9
  %5 = load ptr, ptr %3, align 8, !tbaa !143
  %6 = load i32, ptr %4, align 4, !tbaa !9
  %7 = udiv i32 %6, 32
  %8 = zext i32 %7 to i64
  %9 = getelementptr inbounds nuw ptr, ptr %5, i64 %8
  %10 = load ptr, ptr %9, align 8, !tbaa !42
  %11 = load i32, ptr %4, align 4, !tbaa !9
  %12 = urem i32 %11, 32
  %13 = mul i32 4, %12
  %14 = zext i32 %13 to i64
  %15 = getelementptr inbounds nuw i8, ptr %10, i64 %14
  ret ptr %15
}

; Function Attrs: nounwind uwtable
define hidden i64 @lj_trace_unwind(ptr noundef %0, i64 noundef %1, ptr noundef %2) #3 {
  %4 = alloca i64, align 8
  %5 = alloca ptr, align 8
  %6 = alloca i64, align 8
  %7 = alloca ptr, align 8
  %8 = alloca i32, align 4
  %9 = alloca ptr, align 8
  %10 = alloca ptr, align 8
  %11 = alloca i32, align 4
  %12 = alloca i32, align 4
  %13 = alloca i64, align 8
  %14 = alloca i32, align 4
  %15 = alloca i32, align 4
  store ptr %0, ptr %5, align 8, !tbaa !4
  store i64 %1, ptr %6, align 8, !tbaa !37
  store ptr %2, ptr %7, align 8, !tbaa !67
  call void @llvm.lifetime.start.p0(i64 4, ptr %8) #11
  %16 = load ptr, ptr %5, align 8, !tbaa !4
  %17 = getelementptr inbounds i8, ptr %16, i64 -832
  %18 = getelementptr inbounds nuw %struct.GG_State, ptr %17, i32 0, i32 1
  %19 = getelementptr inbounds nuw %struct.global_State, ptr %18, i32 0, i32 9
  %20 = load volatile i32, ptr %19, align 8, !tbaa !101
  store i32 %20, ptr %8, align 4, !tbaa !9
  call void @llvm.lifetime.start.p0(i64 8, ptr %9) #11
  %21 = load ptr, ptr %5, align 8, !tbaa !4
  %22 = getelementptr inbounds nuw %struct.jit_State, ptr %21, i32 0, i32 36
  %23 = load ptr, ptr %22, align 8, !tbaa !50
  %24 = load i32, ptr %8, align 4, !tbaa !9
  %25 = zext i32 %24 to i64
  %26 = getelementptr inbounds nuw %struct.GCRef, ptr %23, i64 %25
  %27 = getelementptr inbounds nuw %struct.GCRef, ptr %26, i32 0, i32 0
  %28 = load i64, ptr %27, align 8, !tbaa !51
  %29 = inttoptr i64 %28 to ptr
  store ptr %29, ptr %9, align 8, !tbaa !36
  %30 = load ptr, ptr %9, align 8, !tbaa !36
  %31 = icmp ne ptr %30, null
  br i1 %31, label %32, label %102

32:                                               ; preds = %3
  %33 = load i64, ptr %6, align 8, !tbaa !37
  %34 = load ptr, ptr %9, align 8, !tbaa !36
  %35 = getelementptr inbounds nuw %struct.GCtrace, ptr %34, i32 0, i32 16
  %36 = load ptr, ptr %35, align 8, !tbaa !139
  %37 = ptrtoint ptr %36 to i64
  %38 = icmp uge i64 %33, %37
  br i1 %38, label %39, label %102

39:                                               ; preds = %32
  %40 = load i64, ptr %6, align 8, !tbaa !37
  %41 = load ptr, ptr %9, align 8, !tbaa !36
  %42 = getelementptr inbounds nuw %struct.GCtrace, ptr %41, i32 0, i32 16
  %43 = load ptr, ptr %42, align 8, !tbaa !139
  %44 = ptrtoint ptr %43 to i64
  %45 = load ptr, ptr %9, align 8, !tbaa !36
  %46 = getelementptr inbounds nuw %struct.GCtrace, ptr %45, i32 0, i32 15
  %47 = load i32, ptr %46, align 4, !tbaa !140
  %48 = zext i32 %47 to i64
  %49 = add i64 %44, %48
  %50 = icmp ult i64 %40, %49
  br i1 %50, label %51, label %102

51:                                               ; preds = %39
  call void @llvm.lifetime.start.p0(i64 8, ptr %10) #11
  %52 = load ptr, ptr %9, align 8, !tbaa !36
  %53 = getelementptr inbounds nuw %struct.GCtrace, ptr %52, i32 0, i32 10
  %54 = load ptr, ptr %53, align 8, !tbaa !137
  store ptr %54, ptr %10, align 8, !tbaa !138
  call void @llvm.lifetime.start.p0(i64 4, ptr %11) #11
  store i32 0, ptr %11, align 4, !tbaa !9
  call void @llvm.lifetime.start.p0(i64 4, ptr %12) #11
  %55 = load ptr, ptr %9, align 8, !tbaa !36
  %56 = getelementptr inbounds nuw %struct.GCtrace, ptr %55, i32 0, i32 3
  %57 = load i16, ptr %56, align 2, !tbaa !40
  %58 = zext i16 %57 to i32
  store i32 %58, ptr %12, align 4, !tbaa !9
  call void @llvm.lifetime.start.p0(i64 8, ptr %13) #11
  %59 = load i64, ptr %6, align 8, !tbaa !37
  %60 = inttoptr i64 %59 to ptr
  %61 = load ptr, ptr %9, align 8, !tbaa !36
  %62 = getelementptr inbounds nuw %struct.GCtrace, ptr %61, i32 0, i32 16
  %63 = load ptr, ptr %62, align 8, !tbaa !139
  %64 = ptrtoint ptr %60 to i64
  %65 = ptrtoint ptr %63 to i64
  %66 = sub i64 %64, %65
  store i64 %66, ptr %13, align 8, !tbaa !37
  br label %67

67:                                               ; preds = %87, %51
  call void @llvm.lifetime.start.p0(i64 4, ptr %14) #11
  %68 = load i32, ptr %11, align 4, !tbaa !9
  %69 = load i32, ptr %12, align 4, !tbaa !9
  %70 = add i32 %68, %69
  %71 = lshr i32 %70, 1
  store i32 %71, ptr %14, align 4, !tbaa !9
  %72 = load i64, ptr %13, align 8, !tbaa !37
  %73 = load ptr, ptr %10, align 8, !tbaa !138
  %74 = load i32, ptr %14, align 4, !tbaa !9
  %75 = zext i32 %74 to i64
  %76 = getelementptr inbounds nuw %struct.SnapShot, ptr %73, i64 %75
  %77 = getelementptr inbounds nuw %struct.SnapShot, ptr %76, i32 0, i32 2
  %78 = load i16, ptr %77, align 2, !tbaa !141
  %79 = zext i16 %78 to i64
  %80 = icmp ult i64 %72, %79
  br i1 %80, label %81, label %83

81:                                               ; preds = %67
  %82 = load i32, ptr %14, align 4, !tbaa !9
  store i32 %82, ptr %12, align 4, !tbaa !9
  br label %86

83:                                               ; preds = %67
  %84 = load i32, ptr %14, align 4, !tbaa !9
  %85 = add i32 %84, 1
  store i32 %85, ptr %11, align 4, !tbaa !9
  br label %86

86:                                               ; preds = %83, %81
  call void @llvm.lifetime.end.p0(i64 4, ptr %14) #11
  br label %87

87:                                               ; preds = %86
  %88 = load i32, ptr %11, align 4, !tbaa !9
  %89 = load i32, ptr %12, align 4, !tbaa !9
  %90 = icmp ult i32 %88, %89
  br i1 %90, label %67, label %91, !llvm.loop !142

91:                                               ; preds = %87
  %92 = load i32, ptr %12, align 4, !tbaa !9
  %93 = add i32 %92, -1
  store i32 %93, ptr %12, align 4, !tbaa !9
  %94 = load i32, ptr %12, align 4, !tbaa !9
  %95 = load ptr, ptr %7, align 8, !tbaa !67
  store i32 %94, ptr %95, align 4, !tbaa !9
  %96 = load ptr, ptr %5, align 8, !tbaa !4
  %97 = getelementptr inbounds nuw %struct.jit_State, ptr %96, i32 0, i32 43
  %98 = getelementptr inbounds [16 x ptr], ptr %97, i64 0, i64 0
  %99 = load i32, ptr %12, align 4, !tbaa !9
  %100 = call ptr @exitstub_addr_(ptr noundef %98, i32 noundef %99)
  %101 = ptrtoint ptr %100 to i64
  store i64 %101, ptr %4, align 8
  store i32 1, ptr %15, align 4
  call void @llvm.lifetime.end.p0(i64 8, ptr %13) #11
  call void @llvm.lifetime.end.p0(i64 4, ptr %12) #11
  call void @llvm.lifetime.end.p0(i64 4, ptr %11) #11
  call void @llvm.lifetime.end.p0(i64 8, ptr %10) #11
  br label %103

102:                                              ; preds = %39, %32, %3
  store i64 0, ptr %4, align 8
  store i32 1, ptr %15, align 4
  br label %103

103:                                              ; preds = %102, %91
  call void @llvm.lifetime.end.p0(i64 8, ptr %9) #11
  call void @llvm.lifetime.end.p0(i64 4, ptr %8) #11
  %104 = load i64, ptr %4, align 8
  ret i64 %104
}