; Function Attrs: nofree norecurse nounwind memory(read, argmem: readwrite, inaccessiblemem: readwrite) uwtable
define hidden i64 @lj_trace_unwind(ptr noundef %0, i64 noundef %1, ptr noundef writeonly captures(none) %2) local_unnamed_addr #11 {
  %4 = getelementptr inbounds i8, ptr %0, i64 -552
  %5 = load volatile i32, ptr %4, align 8, !tbaa !93
  %6 = getelementptr inbounds nuw i8, ptr %0, i64 384
  %7 = load ptr, ptr %6, align 8, !tbaa !40
  %8 = zext i32 %5 to i64
  %9 = getelementptr inbounds nuw %struct.GCRef, ptr %7, i64 %8
  %10 = load i64, ptr %9, align 8, !tbaa !41
  %11 = inttoptr i64 %10 to ptr
  %.not = icmp eq i64 %10, 0
  br i1 %.not, label %51, label %12

12:                                               ; preds = %3
  %13 = getelementptr inbounds nuw i8, ptr %11, i64 88
  %14 = load ptr, ptr %13, align 8, !tbaa !155
  %15 = ptrtoint ptr %14 to i64
  %.not33 = icmp ult i64 %1, %15
  br i1 %.not33, label %51, label %16

16:                                               ; preds = %12
  %17 = getelementptr inbounds nuw i8, ptr %11, i64 84
  %18 = load i32, ptr %17, align 4, !tbaa !156
  %19 = zext i32 %18 to i64
  %20 = add i64 %19, %15
  %21 = icmp ult i64 %1, %20
  br i1 %21, label %22, label %51

22:                                               ; preds = %16
  %23 = getelementptr inbounds nuw i8, ptr %11, i64 48
  %24 = load ptr, ptr %23, align 8, !tbaa !115
  %25 = getelementptr inbounds nuw i8, ptr %11, i64 10
  %26 = load i16, ptr %25, align 2, !tbaa !33
  %27 = zext i16 %26 to i32
  %28 = sub i64 %1, %15
  br label %29

29:                                               ; preds = %29, %22
  %.028 = phi i32 [ %27, %22 ], [ %.129, %29 ]
  %.027 = phi i32 [ 0, %22 ], [ %.1, %29 ]
  %30 = add i32 %.027, %.028
  %31 = lshr i32 %30, 1
  %32 = zext nneg i32 %31 to i64
  %33 = getelementptr inbounds nuw %struct.SnapShot, ptr %24, i64 %32, i32 2
  %34 = load i16, ptr %33, align 2, !tbaa !157
  %35 = zext i16 %34 to i64
  %36 = icmp ult i64 %28, %35
  %37 = add nuw i32 %31, 1
  %.129 = select i1 %36, i32 %31, i32 %.028
  %.1 = select i1 %36, i32 %.027, i32 %37
  %38 = icmp ult i32 %.1, %.129
  br i1 %38, label %29, label %39, !llvm.loop !158

39:                                               ; preds = %29
  %40 = add nsw i32 %.129, -1
  store i32 %40, ptr %2, align 4, !tbaa !56
  %41 = getelementptr inbounds nuw i8, ptr %0, i64 1696
  %42 = lshr i32 %40, 5
  %43 = zext nneg i32 %42 to i64
  %44 = getelementptr inbounds nuw ptr, ptr %41, i64 %43
  %45 = load ptr, ptr %44, align 8, !tbaa !159
  %46 = shl i32 %40, 2
  %47 = and i32 %46, 124
  %48 = zext nneg i32 %47 to i64
  %49 = getelementptr inbounds nuw i8, ptr %45, i64 %48
  %50 = ptrtoint ptr %49 to i64
  br label %51

51:                                               ; preds = %3, %12, %16, %39
  %.0 = phi i64 [ %50, %39 ], [ 0, %16 ], [ 0, %12 ], [ 0, %3 ]
  ret i64 %.0
}